target datalayout = "e-m:e-p270:32:32-p271:32:32-p272:64:64-i64:64-i128:128-f80:128-n8:16:32:64-S128"
target triple = "x86_64-pc-linux-gnu"

%struct.helper = type { ptr, %struct.ossl_quic_tx_packetiser_args_st, %struct.ossl_qtx_args_st, ptr, ptr, %struct.quic_txfc_st, %struct.quic_rxfc_st, %struct.quic_rxfc_st, %struct.quic_rxfc_st, %struct.quic_rxfc_st, %struct.ossl_statm_st, ptr, ptr, %struct.quic_stream_map_st, i8, i8, ptr, ptr, %struct.ossl_qrx_args_st, ptr, %struct.PACKET, i64, %union.anon.0, [16 x %struct.ossl_quic_ack_range_st] }
%struct.ossl_quic_tx_packetiser_args_st = type { %struct.quic_conn_id_st, %struct.quic_conn_id_st, %union.bio_addr_st, i32, ptr, ptr, ptr, ptr, ptr, ptr, ptr, ptr, ptr, ptr, ptr, ptr, ptr, ptr, ptr, i32, [3 x ptr] }
%struct.quic_conn_id_st = type { i8, [20 x i8] }
%union.bio_addr_st = type { %struct.sockaddr_in6, [84 x i8] }
%struct.sockaddr_in6 = type { i16, i16, i32, %struct.in6_addr, i32 }
%struct.in6_addr = type { %union.anon }
%union.anon = type { [4 x i32] }
%struct.ossl_qtx_args_st = type { ptr, ptr, ptr, i64, ptr, ptr }
%struct.quic_txfc_st = type { ptr, i64, i64, i8 }
%struct.quic_rxfc_st = type { i64, i64, i64, i64, i64, i64, i64, %struct.OSSL_TIME, ptr, ptr, ptr, i8, i8, i8, i8 }
%struct.OSSL_TIME = type { i64 }
%struct.ossl_statm_st = type { %struct.OSSL_TIME, %struct.OSSL_TIME, %struct.OSSL_TIME, %struct.OSSL_TIME, i8 }
%struct.quic_stream_map_st = type { ptr, %struct.quic_stream_list_node_st, %struct.quic_stream_list_node_st, %struct.quic_stream_list_node_st, i64, i64, i64, i64, i64, ptr, ptr, ptr, ptr, ptr, i32 }
%struct.quic_stream_list_node_st = type { ptr, ptr }
%struct.ossl_qrx_args_st = type { ptr, ptr, ptr, i64, i64, [3 x i64], i8 }
%struct.PACKET = type { ptr, i64 }
%union.anon.0 = type { %struct.ossl_quic_frame_new_conn_id_st }
%struct.ossl_quic_frame_new_conn_id_st = type { i64, i64, %struct.quic_conn_id_st, %struct.QUIC_STATELESS_RESET_TOKEN }
%struct.QUIC_STATELESS_RESET_TOKEN = type { [16 x i8] }
%struct.ossl_quic_ack_range_st = type { i64, i64 }
%struct.wpacket_st = type { ptr, ptr, i64, i64, i64, ptr, i8 }
%struct.buf_mem_st = type { i64, ptr, i64, i64 }

@.str.2 = private unnamed_addr constant [32 x i8] c"../openssl/test/quic_txp_test.c\00", align 1
@.str.108 = private unnamed_addr constant [24 x i8] c"buf_mem = BUF_MEM_new()\00", align 1
@.str.109 = private unnamed_addr constant [29 x i8] c"WPACKET_init(&wpkt, buf_mem)\00", align 1
@.str.111 = private unnamed_addr constant [37 x i8] c"WPACKET_get_total_written(&wpkt, &l)\00", align 1
@.str.123 = private unnamed_addr constant [71 x i8] c"ossl_quic_wire_encode_frame_new_token(&wpkt, token_1, sizeof(token_1))\00", align 1
@token_1 = internal constant [6 x i8] c"\10\11\12\13\14\15", align 1
@.str.124 = private unnamed_addr constant [163 x i8] c"cfq_item = ossl_quic_cfq_add_frame(h->args.cfq, 1, QUIC_PN_SPACE_APP, OSSL_QUIC_FRAME_TYPE_NEW_TOKEN, 0, (unsigned char *)buf_mem->data, l, free_buf_mem, buf_mem)\00", align 1

; Function Attrs: nounwind uwtable
define internal i32 @schedule_cfq_new_token(ptr noundef %0) #0 {
  %2 = alloca ptr, align 8
  %3 = alloca i32, align 4
  %4 = alloca ptr, align 8
  %5 = alloca %struct.wpacket_st, align 8
  %6 = alloca ptr, align 8
  %7 = alloca i64, align 8
  store ptr %0, ptr %2, align 8, !tbaa !82
  call void @llvm.lifetime.start.p0(i64 4, ptr %3) #7
  store i32 0, ptr %3, align 4, !tbaa !4
  call void @llvm.lifetime.start.p0(i64 8, ptr %4) #7
  call void @llvm.lifetime.start.p0(i64 56, ptr %5) #7
  call void @llvm.lifetime.start.p0(i64 8, ptr %6) #7
  store ptr null, ptr %6, align 8, !tbaa !124
  call void @llvm.lifetime.start.p0(i64 8, ptr %7) #7
  store i64 0, ptr %7, align 8, !tbaa !11
  %8 = call ptr @BUF_MEM_new()
  store ptr %8, ptr %6, align 8, !tbaa !124
  %9 = call i32 @test_ptr(ptr noundef @.str.2, i32 noundef 500, ptr noundef @.str.108, ptr noundef %8)
  %10 = icmp ne i32 %9, 0
  br i1 %10, label %12, label %11

11:                                               ; preds = %1
  br label %50

12:                                               ; preds = %1
  %13 = load ptr, ptr %6, align 8, !tbaa !124
  %14 = call i32 @WPACKET_init(ptr noundef %5, ptr noundef %13)
  %15 = icmp ne i32 %14, 0
  %16 = zext i1 %15 to i32
  %17 = call i32 @test_true(ptr noundef @.str.2, i32 noundef 503, ptr noundef @.str.109, i32 noundef %16)
  %18 = icmp ne i32 %17, 0
  br i1 %18, label %20, label %19

19:                                               ; preds = %12
  br label %50

20:                                               ; preds = %12
  %21 = call i32 @ossl_quic_wire_encode_frame_new_token(ptr noundef %5, ptr noundef @token_1, i64 noundef 6)
  %22 = icmp ne i32 %21, 0
  %23 = zext i1 %22 to i32
  %24 = call i32 @test_true(ptr noundef @.str.2, i32 noundef 507, ptr noundef @.str.123, i32 noundef %23)
  %25 = icmp ne i32 %24, 0
  br i1 %25, label %27, label %26

26:                                               ; preds = %20
  call void @WPACKET_cleanup(ptr noundef %5)
  br label %50

27:                                               ; preds = %20
  %28 = call i32 @WPACKET_finish(ptr noundef %5)
  %29 = call i32 @WPACKET_get_total_written(ptr noundef %5, ptr noundef %7)
  %30 = icmp ne i32 %29, 0
  %31 = zext i1 %30 to i32
  %32 = call i32 @test_true(ptr noundef @.str.2, i32 noundef 514, ptr noundef @.str.111, i32 noundef %31)
  %33 = icmp ne i32 %32, 0
  br i1 %33, label %35, label %34

34:                                               ; preds = %27
  br label %50

35:                                               ; preds = %27
  %36 = load ptr, ptr %2, align 8, !tbaa !82
  %37 = getelementptr inbounds nuw %struct.helper, ptr %36, i32 0, i32 1
  %38 = getelementptr inbounds nuw %struct.ossl_quic_tx_packetiser_args_st, ptr %37, i32 0, i32 6
  %39 = load ptr, ptr %38, align 8, !tbaa !88
  %40 = load ptr, ptr %6, align 8, !tbaa !124
  %41 = getelementptr inbounds nuw %struct.buf_mem_st, ptr %40, i32 0, i32 1
  %42 = load ptr, ptr %41, align 8, !tbaa !130
  %43 = load i64, ptr %7, align 8, !tbaa !11
  %44 = load ptr, ptr %6, align 8, !tbaa !124
  %45 = call ptr @ossl_quic_cfq_add_frame(ptr noundef %39, i32 noundef 1, i32 noundef 2, i64 noundef 7, i32 noundef 0, ptr noundef %42, i64 noundef %43, ptr noundef @free_buf_mem, ptr noundef %44)
  store ptr %45, ptr %4, align 8, !tbaa !132
  %46 = call i32 @test_ptr(ptr noundef @.str.2, i32 noundef 522, ptr noundef @.str.124, ptr noundef %45)
  %47 = icmp ne i32 %46, 0
  br i1 %47, label %49, label %48

48:                                               ; preds = %35
  br label %50

49:                                               ; preds = %35
  store i32 1, ptr %3, align 4, !tbaa !4
  br label %50

50:                                               ; preds = %49, %48, %34, %26, %19, %11
  %51 = load i32, ptr %3, align 4, !tbaa !4
  %52 = icmp ne i32 %51, 0
  br i1 %52, label %55, label %53

53:                                               ; preds = %50
  %54 = load ptr, ptr %6, align 8, !tbaa !124
  call void @BUF_MEM_free(ptr noundef %54)
  br label %55

55:                                               ; preds = %53, %50
  %56 = load i32, ptr %3, align 4, !tbaa !4
  call void @llvm.lifetime.end.p0(i64 8, ptr %7) #7
  call void @llvm.lifetime.end.p0(i64 8, ptr %6) #7
  call void @llvm.lifetime.end.p0(i64 56, ptr %5) #7
  call void @llvm.lifetime.end.p0(i64 8, ptr %4) #7
  call void @llvm.lifetime.end.p0(i64 4, ptr %3) #7
  ret i32 %56
}