; Function Attrs: nounwind uwtable
define internal range(i32 0, 2) i32 @schedule_cfq_new_token(ptr noundef readonly captures(none) %0) #0 {
  %2 = alloca %struct.wpacket_st, align 8
  %3 = alloca i64, align 8
  call void @llvm.lifetime.start.p0(i64 56, ptr nonnull %2) #8
  call void @llvm.lifetime.start.p0(i64 8, ptr nonnull %3) #8
  store i64 0, ptr %3, align 8, !tbaa !102
  %4 = tail call ptr @BUF_MEM_new() #8
  %5 = tail call i32 @test_ptr(ptr noundef nonnull @.str.2, i32 noundef 500, ptr noundef nonnull @.str.108, ptr noundef %4) #8
  %.not = icmp eq i32 %5, 0
  br i1 %.not, label %.thread, label %6

6:                                                ; preds = %1
  %7 = call i32 @WPACKET_init(ptr noundef nonnull %2, ptr noundef %4) #8
  %8 = icmp ne i32 %7, 0
  %9 = zext i1 %8 to i32
  %10 = call i32 @test_true(ptr noundef nonnull @.str.2, i32 noundef 503, ptr noundef nonnull @.str.109, i32 noundef %9) #8
  %.not6 = icmp eq i32 %10, 0
  br i1 %.not6, label %.thread, label %11

11:                                               ; preds = %6
  %12 = call i32 @ossl_quic_wire_encode_frame_new_token(ptr noundef nonnull %2, ptr noundef nonnull @token_1, i64 noundef 6) #8
  %13 = icmp ne i32 %12, 0
  %14 = zext i1 %13 to i32
  %15 = call i32 @test_true(ptr noundef nonnull @.str.2, i32 noundef 507, ptr noundef nonnull @.str.123, i32 noundef %14) #8
  %.not7 = icmp eq i32 %15, 0
  br i1 %.not7, label %16, label %17

16:                                               ; preds = %11
  call void @WPACKET_cleanup(ptr noundef nonnull %2) #8
  br label %.thread

17:                                               ; preds = %11
  %18 = call i32 @WPACKET_finish(ptr noundef nonnull %2) #8
  %19 = call i32 @WPACKET_get_total_written(ptr noundef nonnull %2, ptr noundef nonnull %3) #8
  %20 = icmp ne i32 %19, 0
  %21 = zext i1 %20 to i32
  %22 = call i32 @test_true(ptr noundef nonnull @.str.2, i32 noundef 514, ptr noundef nonnull @.str.111, i32 noundef %21) #8
  %.not8 = icmp eq i32 %22, 0
  br i1 %.not8, label %.thread, label %23

23:                                               ; preds = %17
  %24 = getelementptr inbounds nuw i8, ptr %0, i64 184
  %25 = load ptr, ptr %24, align 8, !tbaa !51
  %26 = getelementptr inbounds nuw i8, ptr %4, i64 8
  %27 = load ptr, ptr %26, align 8, !tbaa !116
  %28 = load i64, ptr %3, align 8, !tbaa !102
  %29 = call ptr @ossl_quic_cfq_add_frame(ptr noundef %25, i32 noundef 1, i32 noundef 2, i64 noundef 7, i32 noundef 0, ptr noundef %27, i64 noundef %28, ptr noundef nonnull @free_buf_mem, ptr noundef %4) #8
  %30 = call i32 @test_ptr(ptr noundef nonnull @.str.2, i32 noundef 522, ptr noundef nonnull @.str.124, ptr noundef %29) #8
  %.not9 = icmp eq i32 %30, 0
  br i1 %.not9, label %.thread, label %31

.thread:                                          ; preds = %1, %6, %16, %17, %23
  call void @BUF_MEM_free(ptr noundef %4) #8
  br label %31

31:                                               ; preds = %.thread, %23
  %.014 = phi i32 [ 0, %.thread ], [ 1, %23 ]
  call void @llvm.lifetime.end.p0(i64 8, ptr nonnull %3) #8
  call void @llvm.lifetime.end.p0(i64 56, ptr nonnull %2) #8
  ret i32 %.014
}